; Function Attrs: mustprogress nounwind uwtable
define dso_local void @_ZN19btSdfCollisionShapeD2Ev(ptr noundef nonnull align 8 dereferenceable(48) initializes((0, 8)) %0) unnamed_addr #4 align 2 personality ptr @__gxx_personality_v0 {
  store ptr getelementptr inbounds nuw inrange(-16, 136) (i8, ptr @_ZTV19btSdfCollisionShape, i64 16), ptr %0, align 8, !tbaa !14
  %2 = getelementptr inbounds nuw i8, ptr %0, i64 40
  %3 = load ptr, ptr %2, align 8, !tbaa !4
  %4 = icmp eq ptr %3, null
  br i1 %4, label %_ZN31btSdfCollisionShapeInternalDatadlEPv.exit, label %5

5:                                                ; preds = %1
  %6 = getelementptr inbounds nuw i8, ptr %3, i64 24
  tail call void @_ZN9btMiniSDFD2Ev(ptr noundef nonnull align 8 dereferenceable(200) %6) #18
  invoke void @_Z21btAlignedFreeInternalPv(ptr noundef nonnull %3)
          to label %_ZN31btSdfCollisionShapeInternalDatadlEPv.exit unwind label %7

7:                                                ; preds = %5
  %8 = landingpad { ptr, i32 }
          catch ptr null
  %9 = extractvalue { ptr, i32 } %8, 0
  tail call void @__clang_call_terminate(ptr %9) #19
  unreachable

_ZN31btSdfCollisionShapeInternalDatadlEPv.exit:   ; preds = %5, %1
  tail call void @_ZN14btConcaveShapeD2Ev(ptr noundef nonnull align 8 dereferenceable(36) %0) #18
  ret void
}